target datalayout = "e-m:e-p270:32:32-p271:32:32-p272:64:64-i64:64-i128:128-f80:128-n8:16:32:64-S128"
target triple = "x86_64-pc-linux-gnu"

%"class.std::vector.2" = type { %"struct.std::_Vector_base.3" }
%"struct.std::_Vector_base.3" = type { %"struct.std::_Vector_base<float, std::allocator<float>>::_Vector_impl" }
%"struct.std::_Vector_base<float, std::allocator<float>>::_Vector_impl" = type { %"struct.std::_Vector_base<float, std::allocator<float>>::_Vector_impl_data" }
%"struct.std::_Vector_base<float, std::allocator<float>>::_Vector_impl_data" = type { ptr, ptr, ptr }
%class.anon.52 = type { ptr }
%class.anon.53 = type { i8 }

@_ZZ17GetRgbFloatValuesvE15_rgbFloatValues = internal global %"class.std::vector.2" zeroinitializer, align 8
@_ZSt15__once_callable = external thread_local global ptr, align 8

; Function Attrs: mustprogress nounwind uwtable
define linkonce_odr dso_local noundef nonnull align 4 dereferenceable(4) ptr @_ZNSt6vectorIfSaIfEEixEm(ptr noundef nonnull align 8 dereferenceable(24) %0, i64 noundef %1) #5 comdat align 2 {
  %3 = alloca ptr, align 8
  %4 = alloca i64, align 8
  store ptr %0, ptr %3, align 8
  store i64 %1, ptr %4, align 8
  %5 = load ptr, ptr %3, align 8
  %6 = getelementptr inbounds nuw %"struct.std::_Vector_base.3", ptr %5, i32 0, i32 0
  %7 = getelementptr inbounds nuw %"struct.std::_Vector_base<float, std::allocator<float>>::_Vector_impl_data", ptr %6, i32 0, i32 0
  %8 = load ptr, ptr %7, align 8
  %9 = load i64, ptr %4, align 8
  %10 = getelementptr inbounds float, ptr %8, i64 %9
  ret ptr %10
}

; Function Attrs: mustprogress nounwind uwtable
define internal void @"_ZZ17GetRgbFloatValuesvENK3$_0clEv"(ptr noundef nonnull align 1 dereferenceable(1) %0) #5 align 2 {
  %2 = alloca ptr, align 8
  %3 = alloca i32, align 4
  %4 = alloca i32, align 4
  %5 = alloca i32, align 4
  store ptr %0, ptr %2, align 8
  store i32 0, ptr %3, align 4
  br label %6

6:                                                ; preds = %49, %1
  %7 = load i32, ptr %3, align 4
  %8 = icmp slt i32 %7, 256
  br i1 %8, label %9, label %52

9:                                                ; preds = %6
  store i32 0, ptr %4, align 4
  br label %10

10:                                               ; preds = %45, %9
  %11 = load i32, ptr %4, align 4
  %12 = icmp slt i32 %11, 256
  br i1 %12, label %13, label %48

13:                                               ; preds = %10
  %14 = load i32, ptr %3, align 4
  %15 = mul nsw i32 %14, 256
  %16 = load i32, ptr %4, align 4
  %17 = add nsw i32 %15, %16
  %18 = mul nsw i32 3, %17
  store i32 %18, ptr %5, align 4
  %19 = load i32, ptr %4, align 4
  %20 = and i32 %19, 255
  %21 = sitofp i32 %20 to float
  %22 = fdiv float %21, 2.550000e+02
  %23 = load i32, ptr %5, align 4
  %24 = add nsw i32 %23, 0
  %25 = sext i32 %24 to i64
  %26 = call noundef nonnull align 4 dereferenceable(4) ptr @_ZNSt6vectorIfSaIfEEixEm(ptr noundef nonnull align 8 dereferenceable(24) @_ZZ17GetRgbFloatValuesvE15_rgbFloatValues, i64 noundef %25) #3
  store float %22, ptr %26, align 4
  %27 = load i32, ptr %3, align 4
  %28 = and i32 %27, 255
  %29 = sitofp i32 %28 to float
  %30 = fdiv float %29, 2.550000e+02
  %31 = load i32, ptr %5, align 4
  %32 = add nsw i32 %31, 1
  %33 = sext i32 %32 to i64
  %34 = call noundef nonnull align 4 dereferenceable(4) ptr @_ZNSt6vectorIfSaIfEEixEm(ptr noundef nonnull align 8 dereferenceable(24) @_ZZ17GetRgbFloatValuesvE15_rgbFloatValues, i64 noundef %33) #3
  store float %30, ptr %34, align 4
  %35 = load i32, ptr %4, align 4
  %36 = load i32, ptr %3, align 4
  %37 = add nsw i32 %35, %36
  %38 = and i32 %37, 255
  %39 = sitofp i32 %38 to float
  %40 = fdiv float %39, 2.550000e+02
  %41 = load i32, ptr %5, align 4
  %42 = add nsw i32 %41, 2
  %43 = sext i32 %42 to i64
  %44 = call noundef nonnull align 4 dereferenceable(4) ptr @_ZNSt6vectorIfSaIfEEixEm(ptr noundef nonnull align 8 dereferenceable(24) @_ZZ17GetRgbFloatValuesvE15_rgbFloatValues, i64 noundef %43) #3
  store float %40, ptr %44, align 4
  br label %45

45:                                               ; preds = %13
  %46 = load i32, ptr %4, align 4
  %47 = add nsw i32 %46, 1
  store i32 %47, ptr %4, align 4
  br label %10, !llvm.loop !18

48:                                               ; preds = %10
  br label %49

49:                                               ; preds = %48
  %50 = load i32, ptr %3, align 4
  %51 = add nsw i32 %50, 1
  store i32 %51, ptr %3, align 4
  br label %6, !llvm.loop !19

52:                                               ; preds = %6
  ret void
}

; Function Attrs: mustprogress uwtable
define internal void @"_ZSt13__invoke_implIvZ17GetRgbFloatValuesvE3$_0JEET_St14__invoke_otherOT0_DpOT1_"(ptr noundef nonnull align 1 dereferenceable(1) %0) #4 {
  %2 = alloca ptr, align 8
  store ptr %0, ptr %2, align 8
  %3 = load ptr, ptr %2, align 8
  call void @"_ZZ17GetRgbFloatValuesvENK3$_0clEv"(ptr noundef nonnull align 1 dereferenceable(1) %3)
  ret void
}

; Function Attrs: mustprogress uwtable
define internal void @"_ZSt8__invokeIZ17GetRgbFloatValuesvE3$_0JEENSt15__invoke_resultIT_JDpT0_EE4typeEOS2_DpOS3_"(ptr noundef nonnull align 1 dereferenceable(1) %0) #4 {
  %2 = alloca ptr, align 8
  store ptr %0, ptr %2, align 8
  %3 = load ptr, ptr %2, align 8
  call void @"_ZSt13__invoke_implIvZ17GetRgbFloatValuesvE3$_0JEET_St14__invoke_otherOT0_DpOT1_"(ptr noundef nonnull align 1 dereferenceable(1) %3)
  ret void
}

; Function Attrs: mustprogress uwtable
define internal void @"_ZZSt9call_onceIZ17GetRgbFloatValuesvE3$_0JEEvRSt9once_flagOT_DpOT0_ENKUlvE_clEv"(ptr noundef nonnull align 8 dereferenceable(8) %0) #4 align 2 {
  %2 = alloca ptr, align 8
  store ptr %0, ptr %2, align 8
  %3 = load ptr, ptr %2, align 8
  %4 = getelementptr inbounds nuw %class.anon.52, ptr %3, i32 0, i32 0
  %5 = load ptr, ptr %4, align 8
  call void @"_ZSt8__invokeIZ17GetRgbFloatValuesvE3$_0JEENSt15__invoke_resultIT_JDpT0_EE4typeEOS2_DpOS3_"(ptr noundef nonnull align 1 dereferenceable(1) %5)
  ret void
}

; Function Attrs: mustprogress uwtable
define internal void @"_ZZNSt9once_flag18_Prepare_executionC1IZSt9call_onceIZ17GetRgbFloatValuesvE3$_0JEEvRS_OT_DpOT0_EUlvE_EERS5_ENKUlvE_clEv"(ptr noundef nonnull align 1 dereferenceable(1) %0) #4 align 2 {
  %2 = alloca ptr, align 8
  store ptr %0, ptr %2, align 8
  %3 = call align 8 ptr @llvm.threadlocal.address.p0(ptr align 8 @_ZSt15__once_callable)
  %4 = load ptr, ptr %3, align 8
  call void @"_ZZSt9call_onceIZ17GetRgbFloatValuesvE3$_0JEEvRSt9once_flagOT_DpOT0_ENKUlvE_clEv"(ptr noundef nonnull align 8 dereferenceable(8) %4)
  ret void
}

; Function Attrs: mustprogress uwtable
define internal void @"_ZZNSt9once_flag18_Prepare_executionC1IZSt9call_onceIZ17GetRgbFloatValuesvE3$_0JEEvRS_OT_DpOT0_EUlvE_EERS5_ENUlvE_8__invokeEv"() #4 align 2 {
  %1 = alloca %class.anon.53, align 1
  call void @"_ZZNSt9once_flag18_Prepare_executionC1IZSt9call_onceIZ17GetRgbFloatValuesvE3$_0JEEvRS_OT_DpOT0_EUlvE_EERS5_ENKUlvE_clEv"(ptr noundef nonnull align 1 dereferenceable(1) %1)
  ret void
}