; Function Attrs: mustprogress nofree norecurse nosync nounwind memory(readwrite, argmem: write, inaccessiblemem: none) uwtable
define internal void @"_ZZNSt9once_flag18_Prepare_executionC1IZSt9call_onceIZ17GetRgbFloatValuesvE3$_0JEEvRS_OT_DpOT0_EUlvE_EERS5_ENUlvE_8__invokeEv"() #14 align 2 {
  br label %.preheader.i.i.i.i.i

.preheader.i.i.i.i.i:                             ; preds = %24, %0
  %indvars.iv4.i.i.i.i.i = phi i64 [ 0, %0 ], [ %indvars.iv.next5.i.i.i.i.i, %24 ]
  %1 = shl nuw nsw i64 %indvars.iv4.i.i.i.i.i, 8
  %2 = trunc nuw nsw i64 %indvars.iv4.i.i.i.i.i to i32
  %3 = uitofp nneg i32 %2 to float
  %4 = fdiv float %3, 2.550000e+02
  br label %5

5:                                                ; preds = %5, %.preheader.i.i.i.i.i
  %indvars.iv.i.i.i.i.i = phi i64 [ 0, %.preheader.i.i.i.i.i ], [ %indvars.iv.next.i.i.i.i.i, %5 ]
  %6 = add nuw nsw i64 %indvars.iv.i.i.i.i.i, %1
  %7 = mul nuw nsw i64 %6, 3
  %8 = trunc nuw nsw i64 %indvars.iv.i.i.i.i.i to i32
  %9 = uitofp nneg i32 %8 to float
  %10 = fdiv float %9, 2.550000e+02
  %11 = load ptr, ptr @_ZZ17GetRgbFloatValuesvE15_rgbFloatValues, align 8
  %12 = getelementptr inbounds nuw float, ptr %11, i64 %7
  store float %10, ptr %12, align 4
  %13 = load ptr, ptr @_ZZ17GetRgbFloatValuesvE15_rgbFloatValues, align 8
  %14 = getelementptr inbounds nuw float, ptr %13, i64 %7
  %15 = getelementptr inbounds nuw i8, ptr %14, i64 4
  store float %4, ptr %15, align 4
  %16 = add nuw nsw i64 %indvars.iv.i.i.i.i.i, %indvars.iv4.i.i.i.i.i
  %17 = trunc nuw nsw i64 %16 to i32
  %18 = and i32 %17, 255
  %19 = uitofp nneg i32 %18 to float
  %20 = fdiv float %19, 2.550000e+02
  %21 = load ptr, ptr @_ZZ17GetRgbFloatValuesvE15_rgbFloatValues, align 8
  %22 = getelementptr inbounds nuw float, ptr %21, i64 %7
  %23 = getelementptr inbounds nuw i8, ptr %22, i64 8
  store float %20, ptr %23, align 4
  %indvars.iv.next.i.i.i.i.i = add nuw nsw i64 %indvars.iv.i.i.i.i.i, 1
  %exitcond.not.i.i.i.i.i = icmp eq i64 %indvars.iv.next.i.i.i.i.i, 256
  br i1 %exitcond.not.i.i.i.i.i, label %24, label %5, !llvm.loop !19

24:                                               ; preds = %5
  %indvars.iv.next5.i.i.i.i.i = add nuw nsw i64 %indvars.iv4.i.i.i.i.i, 1
  %exitcond7.not.i.i.i.i.i = icmp eq i64 %indvars.iv.next5.i.i.i.i.i, 256
  br i1 %exitcond7.not.i.i.i.i.i, label %"_ZZNSt9once_flag18_Prepare_executionC1IZSt9call_onceIZ17GetRgbFloatValuesvE3$_0JEEvRS_OT_DpOT0_EUlvE_EERS5_ENKUlvE_clEv.exit", label %.preheader.i.i.i.i.i, !llvm.loop !20

"_ZZNSt9once_flag18_Prepare_executionC1IZSt9call_onceIZ17GetRgbFloatValuesvE3$_0JEEvRS_OT_DpOT0_EUlvE_EERS5_ENKUlvE_clEv.exit": ; preds = %24
  ret void
}